; Function Attrs: nounwind uwtable
define hidden void @recff_ffi_abi(ptr noundef %0, ptr noundef readonly captures(none) %1) local_unnamed_addr #0 {
  %3 = getelementptr inbounds nuw i8, ptr %0, i64 160
  %4 = load ptr, ptr %3, align 8, !tbaa !4
  %5 = load i32, ptr %4, align 4, !tbaa !27
  %6 = and i32 %5, 520093696
  %7 = icmp eq i32 %6, 67108864
  br i1 %7, label %8, label %22

8:                                                ; preds = %2
  %9 = trunc i32 %5 to i16
  %10 = load ptr, ptr %1, align 8, !tbaa !28
  %11 = load i64, ptr %10, align 8, !tbaa !31
  %12 = and i64 %11, 140737488355327
  %13 = inttoptr i64 %12 to ptr
  %14 = tail call i32 @lj_ir_kgc(ptr noundef nonnull %0, ptr noundef %13, i32 noundef 4) #8
  %15 = trunc i32 %14 to i16
  %16 = getelementptr inbounds nuw i8, ptr %0, i64 184
  %17 = getelementptr inbounds nuw i8, ptr %0, i64 188
  store i16 2180, ptr %17, align 4, !tbaa !31
  store i16 %9, ptr %16, align 8, !tbaa !31
  %18 = getelementptr inbounds nuw i8, ptr %0, i64 186
  store i16 %15, ptr %18, align 2, !tbaa !31
  %19 = tail call i32 @lj_opt_fold(ptr noundef nonnull %0) #8
  %20 = getelementptr inbounds nuw i8, ptr %0, i64 372
  store i32 4, ptr %20, align 4, !tbaa !64
  %21 = load ptr, ptr %3, align 8, !tbaa !4
  store i32 33587197, ptr %21, align 4, !tbaa !27
  ret void

22:                                               ; preds = %2
  tail call void @lj_trace_err(ptr noundef nonnull %0, i32 noundef 11) #7
  unreachable
}